; Function Attrs: mustprogress uwtable
define void @_Z16grpc_fd_shutdownP7grpc_fdN4absl12lts_202407226StatusE(ptr noundef %0, ptr noundef readonly captures(none) %1) local_unnamed_addr #7 personality ptr @__gxx_personality_v0 {
  %3 = alloca %"class.absl::lts_20240722::Status", align 8
  %4 = load ptr, ptr @_ZL14g_event_engine, align 8, !tbaa !3
  %5 = getelementptr inbounds nuw i8, ptr %4, i64 40
  %6 = load ptr, ptr %5, align 8, !tbaa !25
  %7 = load i64, ptr %1, align 8, !tbaa !26
  store i64 %7, ptr %3, align 8, !tbaa !26
  %8 = and i64 %7, 1
  %.not.i.i = icmp eq i64 %8, 0
  br i1 %.not.i.i, label %9, label %_ZN4absl12lts_202407226StatusC2ERKS1_.exit

9:                                                ; preds = %2
  %10 = inttoptr i64 %7 to ptr
  %11 = atomicrmw add ptr %10, i32 1 monotonic, align 4
  br label %_ZN4absl12lts_202407226StatusC2ERKS1_.exit

_ZN4absl12lts_202407226StatusC2ERKS1_.exit:       ; preds = %2, %9
  invoke void %6(ptr noundef %0, ptr noundef nonnull %3)
          to label %12 unwind label %20

12:                                               ; preds = %_ZN4absl12lts_202407226StatusC2ERKS1_.exit
  %13 = load i64, ptr %3, align 8, !tbaa !26
  %14 = and i64 %13, 1
  %.not.i.i2 = icmp eq i64 %14, 0
  br i1 %.not.i.i2, label %15, label %_ZN4absl12lts_202407226StatusD2Ev.exit

15:                                               ; preds = %12
  %16 = inttoptr i64 %13 to ptr
  invoke void @_ZNK4absl12lts_2024072215status_internal9StatusRep5UnrefEv(ptr noundef nonnull align 8 dereferenceable(48) %16)
          to label %_ZN4absl12lts_202407226StatusD2Ev.exit unwind label %17

17:                                               ; preds = %15
  %18 = landingpad { ptr, i32 }
          catch ptr null
  %19 = extractvalue { ptr, i32 } %18, 0
  call void @__clang_call_terminate(ptr %19) #22
  unreachable

_ZN4absl12lts_202407226StatusD2Ev.exit:           ; preds = %12, %15
  ret void

20:                                               ; preds = %_ZN4absl12lts_202407226StatusC2ERKS1_.exit
  %21 = landingpad { ptr, i32 }
          cleanup
  call void @_ZN4absl12lts_202407226StatusD2Ev(ptr noundef nonnull align 8 dereferenceable(8) %3) #23
  resume { ptr, i32 } %21
}